target datalayout = "e-m:e-p270:32:32-p271:32:32-p272:64:64-i64:64-i128:128-f80:128-n8:16:32:64-S128"
target triple = "x86_64-unknown-linux-gnu"

%"class.std::__cxx11::basic_string" = type { %"struct.std::__cxx11::basic_string<char>::_Alloc_hider", i64, %union.anon }
%"struct.std::__cxx11::basic_string<char>::_Alloc_hider" = type { ptr }
%union.anon = type { i64, [8 x i8] }
%"class.std::error_code" = type { i32, ptr }
%struct.statfs = type { i64, i64, i64, i64, i64, i64, i64, %struct.__fsid_t, i64, i64, i64, [4 x i64] }
%struct.__fsid_t = type { [2 x i32] }

; Function Attrs: mustprogress nounwind uwtable
define linkonce_odr void @_ZNSt10error_codeC2Ev(ptr noundef nonnull align 8 dereferenceable(16) %this) unnamed_addr #0 comdat align 2 {
entry:
  %this.addr = alloca ptr, align 8
  store ptr %this, ptr %this.addr, align 8
  %this1 = load ptr, ptr %this.addr, align 8
  %_M_value = getelementptr inbounds %"class.std::error_code", ptr %this1, i32 0, i32 0
  store i32 0, ptr %_M_value, align 8
  %_M_cat = getelementptr inbounds %"class.std::error_code", ptr %this1, i32 0, i32 1
  %call = call noundef nonnull align 8 dereferenceable(8) ptr @_ZNSt3_V215system_categoryEv() #13
  store ptr %call, ptr %_M_cat, align 8
  ret void
}

; Function Attrs: mustprogress nounwind uwtable
define internal noundef zeroext i1 @_ZN4llvh3sys2fsL13is_local_implER6statfs(ptr noundef nonnull align 8 dereferenceable(120) %Vfs) #0 {
entry:
  %retval = alloca i1, align 1
  %Vfs.addr = alloca ptr, align 8
  store ptr %Vfs, ptr %Vfs.addr, align 8
  %0 = load ptr, ptr %Vfs.addr, align 8
  %f_type = getelementptr inbounds %struct.statfs, ptr %0, i32 0, i32 0
  %1 = load i64, ptr %f_type, align 8
  %conv = trunc i64 %1 to i32
  switch i32 %conv, label %sw.default [
    i32 26985, label %sw.bb
    i32 20859, label %sw.bb
    i32 -11317950, label %sw.bb
  ]

sw.bb:                                            ; preds = %entry, %entry, %entry
  store i1 false, ptr %retval, align 1
  br label %return

sw.default:                                       ; preds = %entry
  store i1 true, ptr %retval, align 1
  br label %return

return:                                           ; preds = %sw.default, %sw.bb
  %2 = load i1, ptr %retval, align 1
  ret i1 %2
}

; Function Attrs: mustprogress nounwind uwtable
define linkonce_odr void @_ZNSt10error_codeC2EiRKNSt3_V214error_categoryE(ptr noundef nonnull align 8 dereferenceable(16) %this, i32 noundef %__v, ptr noundef nonnull align 8 dereferenceable(8) %__cat) unnamed_addr #0 comdat align 2 {
entry:
  %this.addr = alloca ptr, align 8
  %__v.addr = alloca i32, align 4
  %__cat.addr = alloca ptr, align 8
  store ptr %this, ptr %this.addr, align 8
  store i32 %__v, ptr %__v.addr, align 4
  store ptr %__cat, ptr %__cat.addr, align 8
  %this1 = load ptr, ptr %this.addr, align 8
  %_M_value = getelementptr inbounds %"class.std::error_code", ptr %this1, i32 0, i32 0
  %0 = load i32, ptr %__v.addr, align 4
  store i32 %0, ptr %_M_value, align 8
  %_M_cat = getelementptr inbounds %"class.std::error_code", ptr %this1, i32 0, i32 1
  %1 = load ptr, ptr %__cat.addr, align 8
  store ptr %1, ptr %_M_cat, align 8
  ret void
}

; Function Attrs: mustprogress nounwind uwtable
define hidden { i32, ptr } @_ZN4llvh3sys2fs8is_localERKNS_5TwineERb(ptr noundef nonnull align 8 dereferenceable(18) %Path, ptr noundef nonnull align 1 dereferenceable(1) %Result) #0 {
entry:
  %retval = alloca %"class.std::error_code", align 8
  %Path.addr = alloca ptr, align 8
  %Result.addr = alloca ptr, align 8
  %Vfs = alloca %struct.statfs, align 8
  %ref.tmp = alloca %"class.std::__cxx11::basic_string", align 8
  store ptr %Path, ptr %Path.addr, align 8
  store ptr %Result, ptr %Result.addr, align 8
  %0 = load ptr, ptr %Path.addr, align 8
  call void @_ZNK4llvh5Twine3strB5cxx11Ev(ptr sret(%"class.std::__cxx11::basic_string") align 8 %ref.tmp, ptr noundef nonnull align 8 dereferenceable(18) %0)
  %call = call noundef ptr @_ZNKSt7__cxx1112basic_stringIcSt11char_traitsIcESaIcEE5c_strEv(ptr noundef nonnull align 8 dereferenceable(32) %ref.tmp) #9
  %call1 = call i32 @statfs(ptr noundef %call, ptr noundef %Vfs) #9
  %tobool = icmp ne i32 %call1, 0
  call void @_ZNSt7__cxx1112basic_stringIcSt11char_traitsIcESaIcEED1Ev(ptr noundef nonnull align 8 dereferenceable(32) %ref.tmp) #9
  br i1 %tobool, label %if.then, label %if.end

if.then:                                          ; preds = %entry
  %call2 = call ptr @__errno_location() #13
  %1 = load i32, ptr %call2, align 4
  %call3 = call noundef nonnull align 8 dereferenceable(8) ptr @_ZNSt3_V216generic_categoryEv() #13
  call void @_ZNSt10error_codeC2EiRKNSt3_V214error_categoryE(ptr noundef nonnull align 8 dereferenceable(16) %retval, i32 noundef %1, ptr noundef nonnull align 8 dereferenceable(8) %call3) #9
  br label %return

if.end:                                           ; preds = %entry
  %call4 = call noundef zeroext i1 @_ZN4llvh3sys2fsL13is_local_implER6statfs(ptr noundef nonnull align 8 dereferenceable(120) %Vfs)
  %2 = load ptr, ptr %Result.addr, align 8
  %frombool = zext i1 %call4 to i8
  store i8 %frombool, ptr %2, align 1
  call void @_ZNSt10error_codeC2Ev(ptr noundef nonnull align 8 dereferenceable(16) %retval) #9
  br label %return

return:                                           ; preds = %if.end, %if.then
  %3 = load { i32, ptr }, ptr %retval, align 8
  ret { i32, ptr } %3
}